; Function Attrs: nounwind sspstrong uwtable
define hidden range(i32 -1, 2) i32 @ruby_require_internal(ptr noundef %0, i32 noundef %1) local_unnamed_addr #0 {
  %3 = alloca %struct.RString, align 8
  call void @llvm.lifetime.start.p0(i64 40, ptr nonnull %3) #7
  %4 = zext i32 %1 to i64
  %5 = call i64 @rb_setup_fake_str(ptr noundef nonnull %3, ptr noundef %0, i64 noundef %4, ptr noundef null) #7
  %6 = call align 8 ptr @llvm.threadlocal.address.p0(ptr align 8 @ruby_current_ec)
  %7 = load ptr, ptr %6, align 8, !tbaa !55
  %8 = call ptr @rb_ruby_verbose_ptr() #7
  %9 = load i64, ptr %8, align 8, !tbaa !42
  %10 = and i64 %9, -5
  %11 = icmp ne i64 %10, 0
  %12 = call fastcc i32 @require_internal(ptr noundef %7, i64 noundef %5, i32 noundef 0, i1 noundef zeroext %11)
  call void @rb_set_errinfo(i64 noundef 4) #7
  %13 = icmp eq i32 %12, 1
  %.not = icmp ne i32 %12, 0
  %14 = sext i1 %.not to i32
  %15 = select i1 %13, i32 1, i32 %14
  call void @llvm.lifetime.end.p0(i64 40, ptr nonnull %3) #7
  ret i32 %15
}